; Function Attrs: nounwind uwtable
define internal fastcc void @init_thread_stop(ptr noundef readnone captures(address) %0, ptr noundef captures(address_is_null) %1) unnamed_addr #0 {
  %3 = icmp eq ptr %1, null
  br i1 %3, label %44, label %4

4:                                                ; preds = %2
  %5 = tail call i32 @CRYPTO_THREAD_run_once(ptr noundef nonnull @tevent_register_runonce, ptr noundef nonnull @create_global_tevent_register_ossl_) #2
  %6 = icmp eq i32 %5, 0
  %7 = load i32, ptr @create_global_tevent_register_ossl_ret_, align 4
  %8 = icmp eq i32 %7, 0
  %or.cond.i.not = select i1 %6, i1 true, i1 %8
  %9 = load ptr, ptr @glob_tevent_reg, align 8
  %10 = icmp eq ptr %9, null
  %11 = select i1 %or.cond.i.not, i1 true, i1 %10
  br i1 %11, label %44, label %12

12:                                               ; preds = %4
  %13 = getelementptr inbounds nuw i8, ptr %9, i64 8
  %14 = load ptr, ptr %13, align 8, !tbaa !3
  %15 = tail call i32 @CRYPTO_THREAD_write_lock(ptr noundef %14) #2
  %.not = icmp eq i32 %15, 0
  br i1 %.not, label %44, label %16

16:                                               ; preds = %12
  %17 = load ptr, ptr %1, align 8, !tbaa !9
  %.not253144 = icmp eq ptr %17, null
  br i1 %.not253144, label %.outer._crit_edge, label %.lr.ph.lr.ph

.lr.ph.lr.ph:                                     ; preds = %16
  %.not26 = icmp eq ptr %0, null
  br i1 %.not26, label %.lr.ph.split.us.split.us, label %.lr.ph

.lr.ph:                                           ; preds = %.lr.ph.lr.ph, %.outer
  %.0.ph46 = phi ptr [ %36, %.outer ], [ %17, %.lr.ph.lr.ph ]
  %.021.ph45 = phi ptr [ %.us-phi, %.outer ], [ null, %.lr.ph.lr.ph ]
  %.021.ph45.fr = freeze ptr %.021.ph45
  %18 = icmp eq ptr %.021.ph45.fr, null
  %19 = getelementptr inbounds nuw i8, ptr %.021.ph45.fr, i64 24
  br i1 %18, label %.lr.ph.split.us.split, label %.lr.ph.split

.lr.ph.split.us.split.us:                         ; preds = %.lr.ph.lr.ph, %.lr.ph.split.us.split.us
  %.032.us.us = phi ptr [ %25, %.lr.ph.split.us.split.us ], [ %17, %.lr.ph.lr.ph ]
  %20 = getelementptr inbounds nuw i8, ptr %.032.us.us, i64 16
  %21 = load ptr, ptr %20, align 8, !tbaa !11
  %22 = getelementptr inbounds nuw i8, ptr %.032.us.us, i64 8
  %23 = load ptr, ptr %22, align 8, !tbaa !13
  tail call void %21(ptr noundef %23) #2
  %24 = getelementptr inbounds nuw i8, ptr %.032.us.us, i64 24
  %25 = load ptr, ptr %24, align 8, !tbaa !14
  store ptr %25, ptr %1, align 8, !tbaa !9
  tail call void @CRYPTO_free(ptr noundef nonnull %.032.us.us, ptr noundef nonnull @.str, i32 noundef 360) #2
  %.not25.us.us = icmp eq ptr %25, null
  br i1 %.not25.us.us, label %.outer._crit_edge, label %.lr.ph.split.us.split.us, !llvm.loop !15

.lr.ph.split.us.split:                            ; preds = %.lr.ph, %28
  %.032.us = phi ptr [ %32, %28 ], [ %.0.ph46, %.lr.ph ]
  %26 = getelementptr inbounds nuw i8, ptr %.032.us, i64 8
  %27 = load ptr, ptr %26, align 8, !tbaa !13
  %.not27.us = icmp eq ptr %27, %0
  br i1 %.not27.us, label %28, label %.outer

28:                                               ; preds = %.lr.ph.split.us.split
  %29 = getelementptr inbounds nuw i8, ptr %.032.us, i64 16
  %30 = load ptr, ptr %29, align 8, !tbaa !11
  tail call void %30(ptr noundef %27) #2
  %31 = getelementptr inbounds nuw i8, ptr %.032.us, i64 24
  %32 = load ptr, ptr %31, align 8, !tbaa !14
  store ptr %32, ptr %1, align 8, !tbaa !9
  tail call void @CRYPTO_free(ptr noundef nonnull %.032.us, ptr noundef nonnull @.str, i32 noundef 360) #2
  %.not25.us = icmp eq ptr %32, null
  br i1 %.not25.us, label %.outer._crit_edge, label %.lr.ph.split.us.split, !llvm.loop !15

.lr.ph.split:                                     ; preds = %.lr.ph, %37
  %.032 = phi ptr [ %41, %37 ], [ %.0.ph46, %.lr.ph ]
  %33 = getelementptr inbounds nuw i8, ptr %.032, i64 8
  %34 = load ptr, ptr %33, align 8, !tbaa !13
  %.not27 = icmp eq ptr %34, %0
  br i1 %.not27, label %37, label %.outer

.outer:                                           ; preds = %.lr.ph.split, %.lr.ph.split.us.split
  %.us-phi = phi ptr [ %.032.us, %.lr.ph.split.us.split ], [ %.032, %.lr.ph.split ]
  %35 = getelementptr inbounds nuw i8, ptr %.us-phi, i64 24
  %36 = load ptr, ptr %35, align 8, !tbaa !14
  %.not2531 = icmp eq ptr %36, null
  br i1 %.not2531, label %.outer._crit_edge, label %.lr.ph, !llvm.loop !15

37:                                               ; preds = %.lr.ph.split
  %38 = getelementptr inbounds nuw i8, ptr %.032, i64 16
  %39 = load ptr, ptr %38, align 8, !tbaa !11
  tail call void %39(ptr noundef %34) #2
  %40 = getelementptr inbounds nuw i8, ptr %.032, i64 24
  %41 = load ptr, ptr %40, align 8, !tbaa !14
  store ptr %41, ptr %19, align 8, !tbaa !14
  tail call void @CRYPTO_free(ptr noundef nonnull %.032, ptr noundef nonnull @.str, i32 noundef 360) #2
  %.not25 = icmp eq ptr %41, null
  br i1 %.not25, label %.outer._crit_edge, label %.lr.ph.split, !llvm.loop !15

.outer._crit_edge:                                ; preds = %.outer, %37, %28, %.lr.ph.split.us.split.us, %16
  %42 = load ptr, ptr %13, align 8, !tbaa !3
  %43 = tail call i32 @CRYPTO_THREAD_unlock(ptr noundef %42) #2
  br label %44

44:                                               ; preds = %12, %4, %2, %.outer._crit_edge
  ret void
}